; Function Attrs: mustprogress nofree norecurse nosync nounwind willreturn memory(read, inaccessiblemem: none) uwtable
define dso_local noundef zeroext i1 @_ZN5ImGui13IsItemFocusedEv() local_unnamed_addr #31 {
  %1 = load ptr, ptr @GImGui, align 8, !tbaa !211
  %2 = getelementptr inbounds nuw i8, ptr %1, i64 7800
  %3 = load i32, ptr %2, align 8, !tbaa !398
  %4 = getelementptr inbounds nuw i8, ptr %1, i64 7432
  %5 = load i32, ptr %4, align 8, !tbaa !777
  %.not = icmp eq i32 %3, %5
  %6 = icmp ne i32 %3, 0
  %or.cond.not = and i1 %6, %.not
  ret i1 %or.cond.not
}